target datalayout = "e-m:e-p270:32:32-p271:32:32-p272:64:64-i64:64-i128:128-f80:128-n8:16:32:64-S128"
target triple = "x86_64-pc-linux-gnu"

%"class.zxing::ResultPoint" = type { %"class.zxing::Counted.base", float, float, [4 x i8] }
%"class.zxing::Counted.base" = type <{ ptr, i32 }>
%"class.zxing::Ref" = type { ptr }

; Function Attrs: inlinehint mustprogress nounwind uwtable
define linkonce_odr hidden noundef float @_ZN5zxing6common9MathUtils8distanceEffff(float noundef %0, float noundef %1, float noundef %2, float noundef %3) #5 comdat align 2 {
  %5 = alloca float, align 4
  %6 = alloca float, align 4
  %7 = alloca float, align 4
  %8 = alloca float, align 4
  %9 = alloca float, align 4
  %10 = alloca float, align 4
  store float %0, ptr %5, align 4, !tbaa !19
  store float %1, ptr %6, align 4, !tbaa !19
  store float %2, ptr %7, align 4, !tbaa !19
  store float %3, ptr %8, align 4, !tbaa !19
  call void @llvm.lifetime.start.p0(i64 4, ptr %9) #7
  %11 = load float, ptr %5, align 4, !tbaa !19
  %12 = load float, ptr %7, align 4, !tbaa !19
  %13 = fsub float %11, %12
  store float %13, ptr %9, align 4, !tbaa !19
  call void @llvm.lifetime.start.p0(i64 4, ptr %10) #7
  %14 = load float, ptr %6, align 4, !tbaa !19
  %15 = load float, ptr %8, align 4, !tbaa !19
  %16 = fsub float %14, %15
  store float %16, ptr %10, align 4, !tbaa !19
  %17 = load float, ptr %9, align 4, !tbaa !19
  %18 = load float, ptr %9, align 4, !tbaa !19
  %19 = load float, ptr %10, align 4, !tbaa !19
  %20 = load float, ptr %10, align 4, !tbaa !19
  %21 = fmul float %19, %20
  %22 = call float @llvm.fmuladd.f32(float %17, float %18, float %21)
  %23 = fpext float %22 to double
  %24 = call double @sqrt(double noundef %23) #7, !tbaa !20
  %25 = fptrunc double %24 to float
  call void @llvm.lifetime.end.p0(i64 4, ptr %10) #7
  call void @llvm.lifetime.end.p0(i64 4, ptr %9) #7
  ret float %25
}

; Function Attrs: mustprogress nounwind uwtable
define linkonce_odr hidden noundef ptr @_ZNK5zxing3RefINS_11ResultPointEEptEv(ptr noundef nonnull align 8 dereferenceable(8) %0) #1 comdat align 2 {
  %2 = alloca ptr, align 8
  store ptr %0, ptr %2, align 8, !tbaa !21
  %3 = load ptr, ptr %2, align 8
  %4 = getelementptr inbounds nuw %"class.zxing::Ref", ptr %3, i32 0, i32 0
  %5 = load ptr, ptr %4, align 8, !tbaa !23
  ret ptr %5
}

; Function Attrs: mustprogress uwtable
define hidden noundef float @_ZN5zxing11ResultPoint8distanceENS_3RefIS0_EES2_(ptr noundef %0, ptr noundef %1) #0 align 2 {
  %3 = alloca ptr, align 8
  %4 = alloca ptr, align 8
  store ptr %0, ptr %3, align 8, !tbaa !21
  store ptr %1, ptr %4, align 8, !tbaa !21
  %5 = call noundef ptr @_ZNK5zxing3RefINS_11ResultPointEEptEv(ptr noundef nonnull align 8 dereferenceable(8) %0)
  %6 = getelementptr inbounds nuw %"class.zxing::ResultPoint", ptr %5, i32 0, i32 1
  %7 = load float, ptr %6, align 4, !tbaa !10
  %8 = call noundef ptr @_ZNK5zxing3RefINS_11ResultPointEEptEv(ptr noundef nonnull align 8 dereferenceable(8) %0)
  %9 = getelementptr inbounds nuw %"class.zxing::ResultPoint", ptr %8, i32 0, i32 2
  %10 = load float, ptr %9, align 8, !tbaa !15
  %11 = call noundef ptr @_ZNK5zxing3RefINS_11ResultPointEEptEv(ptr noundef nonnull align 8 dereferenceable(8) %1)
  %12 = getelementptr inbounds nuw %"class.zxing::ResultPoint", ptr %11, i32 0, i32 1
  %13 = load float, ptr %12, align 4, !tbaa !10
  %14 = call noundef ptr @_ZNK5zxing3RefINS_11ResultPointEEptEv(ptr noundef nonnull align 8 dereferenceable(8) %1)
  %15 = getelementptr inbounds nuw %"class.zxing::ResultPoint", ptr %14, i32 0, i32 2
  %16 = load float, ptr %15, align 8, !tbaa !15
  %17 = call noundef float @_ZN5zxing6common9MathUtils8distanceEffff(float noundef %7, float noundef %10, float noundef %13, float noundef %16)
  ret float %17
}