; Function Attrs: mustprogress nofree norecurse nosync nounwind willreturn memory(read, inaccessiblemem: none) uwtable
define hidden noundef float @_ZN5zxing11ResultPoint8distanceENS_3RefIS0_EES2_(ptr noundef readonly captures(none) %0, ptr noundef readonly captures(none) %1) local_unnamed_addr #6 align 2 {
  %3 = load ptr, ptr %0, align 8, !tbaa !14
  %4 = getelementptr inbounds nuw i8, ptr %3, i64 12
  %5 = load float, ptr %4, align 4, !tbaa !10
  %6 = getelementptr inbounds nuw i8, ptr %3, i64 16
  %7 = load float, ptr %6, align 8, !tbaa !13
  %8 = load ptr, ptr %1, align 8, !tbaa !14
  %9 = getelementptr inbounds nuw i8, ptr %8, i64 12
  %10 = load float, ptr %9, align 4, !tbaa !10
  %11 = getelementptr inbounds nuw i8, ptr %8, i64 16
  %12 = load float, ptr %11, align 8, !tbaa !13
  %13 = fsub float %5, %10
  %14 = fsub float %7, %12
  %15 = fmul float %14, %14
  %16 = tail call float @llvm.fmuladd.f32(float %13, float %13, float %15)
  %sqrt.i = tail call noundef float @llvm.sqrt.f32(float %16)
  ret float %sqrt.i
}